target datalayout = "e-m:e-p270:32:32-p271:32:32-p272:64:64-i64:64-i128:128-f80:128-n8:16:32:64-S128"
target triple = "x86_64-unknown-linux-gnu"

%struct.grpc_closure = type { %union.anon, ptr, ptr, %union.anon.9 }
%union.anon = type { ptr }
%union.anon.9 = type { i64 }
%"class.grpc_core::promise_filter_detail::BaseCallData::CapturedBatch" = type { ptr }
%struct.grpc_transport_stream_op_batch = type { ptr, ptr, i8, %struct.grpc_handler_private_op_data }
%struct.grpc_handler_private_op_data = type { ptr, %struct.grpc_closure }

; Function Attrs: mustprogress nounwind uwtable
define internal noundef ptr @_ZN9grpc_core21promise_filter_detail12_GLOBAL__N_113RefCountFieldEP30grpc_transport_stream_op_batch(ptr noundef %b) #5 {
entry:
  %b.addr = alloca ptr, align 8
  store ptr %b, ptr %b.addr, align 8
  %0 = load ptr, ptr %b.addr, align 8
  %handler_private = getelementptr inbounds %struct.grpc_transport_stream_op_batch, ptr %0, i32 0, i32 3
  %closure = getelementptr inbounds %struct.grpc_handler_private_op_data, ptr %handler_private, i32 0, i32 1
  %error_data = getelementptr inbounds %struct.grpc_closure, ptr %closure, i32 0, i32 3
  ret ptr %error_data
}

; Function Attrs: mustprogress uwtable
define void @_ZN9grpc_core21promise_filter_detail12BaseCallData13CapturedBatchC2ERKS2_(ptr noundef nonnull align 8 dereferenceable(8) %this, ptr noundef nonnull align 8 dereferenceable(8) %rhs) unnamed_addr #4 align 2 {
entry:
  %this.addr = alloca ptr, align 8
  %rhs.addr = alloca ptr, align 8
  %refcnt = alloca ptr, align 8
  store ptr %this, ptr %this.addr, align 8
  store ptr %rhs, ptr %rhs.addr, align 8
  %this1 = load ptr, ptr %this.addr, align 8
  %batch_ = getelementptr inbounds %"class.grpc_core::promise_filter_detail::BaseCallData::CapturedBatch", ptr %this1, i32 0, i32 0
  %0 = load ptr, ptr %rhs.addr, align 8
  %batch_2 = getelementptr inbounds %"class.grpc_core::promise_filter_detail::BaseCallData::CapturedBatch", ptr %0, i32 0, i32 0
  %1 = load ptr, ptr %batch_2, align 8
  store ptr %1, ptr %batch_, align 8
  %batch_3 = getelementptr inbounds %"class.grpc_core::promise_filter_detail::BaseCallData::CapturedBatch", ptr %this1, i32 0, i32 0
  %2 = load ptr, ptr %batch_3, align 8
  %cmp = icmp eq ptr %2, null
  br i1 %cmp, label %if.then, label %if.end

if.then:                                          ; preds = %entry
  br label %return

if.end:                                           ; preds = %entry
  %batch_4 = getelementptr inbounds %"class.grpc_core::promise_filter_detail::BaseCallData::CapturedBatch", ptr %this1, i32 0, i32 0
  %3 = load ptr, ptr %batch_4, align 8
  %call = call noundef ptr @_ZN9grpc_core21promise_filter_detail12_GLOBAL__N_113RefCountFieldEP30grpc_transport_stream_op_batch(ptr noundef %3)
  store ptr %call, ptr %refcnt, align 8
  %4 = load ptr, ptr %refcnt, align 8
  %5 = load i64, ptr %4, align 8
  %cmp5 = icmp eq i64 %5, 0
  br i1 %cmp5, label %if.then6, label %if.end7

if.then6:                                         ; preds = %if.end
  br label %return

if.end7:                                          ; preds = %if.end
  %6 = load ptr, ptr %refcnt, align 8
  %7 = load i64, ptr %6, align 8
  %inc = add i64 %7, 1
  store i64 %inc, ptr %6, align 8
  br label %return

return:                                           ; preds = %if.end7, %if.then6, %if.then
  ret void
}