; Function Attrs: mustprogress nofree norecurse nosync nounwind willreturn memory(readwrite, inaccessiblemem: none) uwtable
define void @_ZN9grpc_core21promise_filter_detail12BaseCallData13CapturedBatchC2ERKS2_(ptr nocapture noundef nonnull writeonly align 8 dereferenceable(8) %this, ptr nocapture noundef nonnull readonly align 8 dereferenceable(8) %rhs) unnamed_addr #19 align 2 {
entry:
  %0 = load ptr, ptr %rhs, align 8
  store ptr %0, ptr %this, align 8
  %cmp = icmp eq ptr %0, null
  br i1 %cmp, label %return, label %if.end

if.end:                                           ; preds = %entry
  %error_data.i = getelementptr inbounds i8, ptr %0, i64 56
  %1 = load i64, ptr %error_data.i, align 8
  %cmp5 = icmp eq i64 %1, 0
  br i1 %cmp5, label %return, label %if.end7

if.end7:                                          ; preds = %if.end
  %inc = add i64 %1, 1
  store i64 %inc, ptr %error_data.i, align 8
  br label %return

return:                                           ; preds = %if.end, %entry, %if.end7
  ret void
}